target datalayout = "e-m:e-p270:32:32-p271:32:32-p272:64:64-i64:64-i128:128-f80:128-n8:16:32:64-S128"
target triple = "x86_64-pc-linux-gnu"

%struct.FT_CMapRec_ = type { %struct.FT_CharMapRec_, ptr }
%struct.FT_CharMapRec_ = type { ptr, i32, i16, i16 }
%struct.CFF_CMapStdRec_ = type { %struct.FT_CMapRec_, ptr }

; Function Attrs: nounwind uwtable
define internal i32 @cff_cmap_encoding_char_next(ptr noundef %0, ptr noundef %1) #0 {
  %3 = alloca ptr, align 8
  %4 = alloca ptr, align 8
  %5 = alloca ptr, align 8
  %6 = alloca i32, align 4
  %7 = alloca i32, align 4
  store ptr %0, ptr %3, align 8
  store ptr %1, ptr %4, align 8
  %8 = load ptr, ptr %3, align 8
  store ptr %8, ptr %5, align 8
  store i32 0, ptr %6, align 4
  %9 = load ptr, ptr %4, align 8
  %10 = load i32, ptr %9, align 4
  store i32 %10, ptr %7, align 4
  br label %11

11:                                               ; preds = %29, %2
  %12 = load i32, ptr %7, align 4
  %13 = icmp ult i32 %12, 255
  br i1 %13, label %14, label %30

14:                                               ; preds = %11
  %15 = load ptr, ptr %5, align 8
  %16 = getelementptr inbounds %struct.CFF_CMapStdRec_, ptr %15, i32 0, i32 1
  %17 = load ptr, ptr %16, align 8
  %18 = load i32, ptr %7, align 4
  %19 = add i32 %18, 1
  store i32 %19, ptr %7, align 4
  %20 = zext i32 %19 to i64
  %21 = getelementptr inbounds i16, ptr %17, i64 %20
  %22 = load i16, ptr %21, align 2
  %23 = zext i16 %22 to i32
  store i32 %23, ptr %6, align 4
  %24 = load i32, ptr %6, align 4
  %25 = icmp ne i32 %24, 0
  br i1 %25, label %26, label %29

26:                                               ; preds = %14
  %27 = load i32, ptr %7, align 4
  %28 = load ptr, ptr %4, align 8
  store i32 %27, ptr %28, align 4
  br label %30

29:                                               ; preds = %14
  br label %11, !llvm.loop !4

30:                                               ; preds = %26, %11
  %31 = load i32, ptr %6, align 4
  ret i32 %31
}