; Function Attrs: nofree norecurse nosync nounwind memory(read, argmem: readwrite, inaccessiblemem: none) uwtable
define internal range(i32 0, 65536) i32 @cff_cmap_encoding_char_next(ptr nocapture noundef readonly %0, ptr nocapture noundef %1) #3 {
  %3 = load i32, ptr %1, align 4
  %4 = getelementptr inbounds i8, ptr %0, i64 24
  %5 = zext i32 %3 to i64
  %umax = tail call i32 @llvm.umax.i32(i32 %3, i32 255)
  %wide.trip.count = zext i32 %umax to i64
  br label %6

6:                                                ; preds = %7, %2
  %indvars.iv = phi i64 [ %indvars.iv.next, %7 ], [ %5, %2 ]
  %exitcond.not = icmp eq i64 %indvars.iv, %wide.trip.count
  br i1 %exitcond.not, label %.loopexit, label %7

7:                                                ; preds = %6
  %8 = load ptr, ptr %4, align 8
  %indvars.iv.next = add nuw nsw i64 %indvars.iv, 1
  %9 = getelementptr inbounds i16, ptr %8, i64 %indvars.iv.next
  %10 = load i16, ptr %9, align 2
  %.not = icmp eq i16 %10, 0
  br i1 %.not, label %6, label %11, !llvm.loop !4

11:                                               ; preds = %7
  %12 = trunc nuw i64 %indvars.iv.next to i32
  %13 = zext i16 %10 to i32
  store i32 %12, ptr %1, align 4
  br label %.loopexit

.loopexit:                                        ; preds = %6, %11
  %.1 = phi i32 [ %13, %11 ], [ 0, %6 ]
  ret i32 %.1
}